target datalayout = "e-m:e-p270:32:32-p271:32:32-p272:64:64-i64:64-i128:128-f80:128-n8:16:32:64-S128"
target triple = "x86_64-pc-linux-gnu"

%struct.rlimit = type { i64, i64 }

; Function Attrs: mustprogress nounwind uwtable
define noundef i64 @_ZN11OpenImageIO6v3_1_07Sysutil14max_open_filesEv() #10 {
  %1 = alloca i64, align 8
  %2 = alloca %struct.rlimit, align 8
  %3 = alloca i32, align 4
  call void @llvm.lifetime.start.p0(i64 16, ptr %2) #3
  %4 = call i32 @getrlimit(i32 noundef 7, ptr noundef %2) #3
  %5 = icmp eq i32 %4, 0
  br i1 %5, label %6, label %9

6:                                                ; preds = %0
  %7 = getelementptr inbounds nuw %struct.rlimit, ptr %2, i32 0, i32 0
  %8 = load i64, ptr %7, align 8, !tbaa !62
  store i64 %8, ptr %1, align 8
  store i32 1, ptr %3, align 4
  br label %10

9:                                                ; preds = %0
  store i64 -1, ptr %1, align 8
  store i32 1, ptr %3, align 4
  br label %10

10:                                               ; preds = %9, %6
  call void @llvm.lifetime.end.p0(i64 16, ptr %2) #3
  %11 = load i64, ptr %1, align 8
  ret i64 %11
}