; Function Attrs: mustprogress nounwind uwtable
define noundef i64 @_ZN11OpenImageIO6v3_1_07Sysutil14max_open_filesEv() local_unnamed_addr #11 {
  %1 = alloca %struct.rlimit, align 8
  call void @llvm.lifetime.start.p0(i64 16, ptr nonnull %1) #32
  %2 = call i32 @getrlimit(i32 noundef 7, ptr noundef nonnull %1) #32
  %3 = icmp eq i32 %2, 0
  %4 = load i64, ptr %1, align 8
  %.0 = select i1 %3, i64 %4, i64 -1
  call void @llvm.lifetime.end.p0(i64 16, ptr nonnull %1) #32
  ret i64 %.0
}